target datalayout = "e-m:e-p270:32:32-p271:32:32-p272:64:64-i64:64-i128:128-f80:128-n8:16:32:64-S128"
target triple = "x86_64-pc-linux-gnu"

%"class.google::LogMessageFatal" = type { %"class.google::LogMessage" }
%"class.google::LogMessage" = type { ptr, ptr, %"struct.google::LogMessageTime" }
%"struct.google::LogMessageTime" = type { %struct.tm, i64, i32, i64 }
%struct.tm = type { i32, i32, i32, i32, i32, i32, i32, i32, i32, i64, ptr }
%"class.ceres::internal::DenseCholesky" = type { ptr }
%"class.ceres::internal::CUDADenseCholesky" = type <{ %"class.ceres::internal::DenseCholesky", ptr, i64, %"class.ceres::internal::CudaBuffer", %"class.ceres::internal::CudaBuffer", %"class.ceres::internal::CudaBuffer", %"class.ceres::internal::CudaBuffer.196", i32, [4 x i8] }>
%"class.ceres::internal::CudaBuffer" = type { ptr, i64, ptr }
%"class.ceres::internal::CudaBuffer.196" = type { ptr, i64, ptr }
%"class.ceres::internal::ContextImpl" = type <{ %"class.ceres::Context", %"class.ceres::internal::ThreadPool", ptr, ptr, [2 x ptr], ptr, i8, [3 x i8], i32, %struct.cudaDeviceProp, i8, [3 x i8], i32, i32, [4 x i8] }>
%"class.ceres::Context" = type { ptr }
%"class.ceres::internal::ThreadPool" = type { %"class.ceres::internal::ConcurrentQueue", %"class.std::vector.200", %"class.std::mutex" }
%"class.ceres::internal::ConcurrentQueue" = type <{ %"class.std::mutex", %"class.std::condition_variable", %"class.std::queue", i8, [7 x i8] }>
%"class.std::condition_variable" = type { %"class.std::__condvar" }
%"class.std::__condvar" = type { %union.pthread_cond_t }
%union.pthread_cond_t = type { %struct.__pthread_cond_s }
%struct.__pthread_cond_s = type { %union.__atomic_wide_counter, %union.__atomic_wide_counter, [2 x i32], [2 x i32], i32, i32, [2 x i32] }
%union.__atomic_wide_counter = type { i64 }
%"class.std::queue" = type { %"class.std::deque" }
%"class.std::deque" = type { %"class.std::_Deque_base" }
%"class.std::_Deque_base" = type { %"struct.std::_Deque_base<std::function<void ()>, std::allocator<std::function<void ()>>>::_Deque_impl" }
%"struct.std::_Deque_base<std::function<void ()>, std::allocator<std::function<void ()>>>::_Deque_impl" = type { %"struct.std::_Deque_base<std::function<void ()>, std::allocator<std::function<void ()>>>::_Deque_impl_data" }
%"struct.std::_Deque_base<std::function<void ()>, std::allocator<std::function<void ()>>>::_Deque_impl_data" = type { ptr, i64, %"struct.std::_Deque_iterator", %"struct.std::_Deque_iterator" }
%"struct.std::_Deque_iterator" = type { ptr, ptr, ptr, ptr }
%"class.std::vector.200" = type { %"struct.std::_Vector_base.201" }
%"struct.std::_Vector_base.201" = type { %"struct.std::_Vector_base<std::thread, std::allocator<std::thread>>::_Vector_impl" }
%"struct.std::_Vector_base<std::thread, std::allocator<std::thread>>::_Vector_impl" = type { %"struct.std::_Vector_base<std::thread, std::allocator<std::thread>>::_Vector_impl_data" }
%"struct.std::_Vector_base<std::thread, std::allocator<std::thread>>::_Vector_impl_data" = type { ptr, ptr, ptr }
%"class.std::mutex" = type { %"class.std::__mutex_base" }
%"class.std::__mutex_base" = type { %union.pthread_mutex_t }
%union.pthread_mutex_t = type { %struct.__pthread_mutex_s }
%struct.__pthread_mutex_s = type { i32, i32, i32, i32, i32, i16, i16, %struct.__pthread_internal_list }
%struct.__pthread_internal_list = type { ptr, ptr }
%struct.cudaDeviceProp = type { [256 x i8], %struct.CUuuid_st, [8 x i8], i32, i64, i64, i32, i32, i64, i32, [3 x i32], [3 x i32], i32, i64, i32, i32, i64, i64, i32, i32, i32, i32, i32, i32, i32, i32, i32, [2 x i32], [2 x i32], [3 x i32], [2 x i32], [3 x i32], [3 x i32], i32, [2 x i32], [3 x i32], [2 x i32], i32, [2 x i32], [3 x i32], [2 x i32], [3 x i32], i32, [2 x i32], i64, i32, i32, i32, i32, i32, i32, i32, i32, i32, i32, i32, i32, i32, i32, i32, i32, i64, i32, i32, i32, i32, i32, i32, i32, i32, i32, i32, i32, i32, i64, i32, i32, i32, i32, i64 }
%struct.CUuuid_st = type { [16 x i8] }

@.str = private unnamed_addr constant [129 x i8] c"generated/home/dtcxzyw/WorkSpace/Projects/compilers/llvm-opt-benchmark/bench/ceres/ceres-solver/internal/ceres/dense_cholesky.cc\00", align 1
@.str.6 = private unnamed_addr constant [44 x i8] c"Congratulations, you found a bug in Ceres. \00", align 1
@.str.9 = private unnamed_addr constant [11 x i8] c"Argument: \00", align 1
@.str.10 = private unnamed_addr constant [13 x i8] c" is invalid.\00", align 1
@.str.13 = private unnamed_addr constant [8 x i8] c"Success\00", align 1
@.str.23 = private unnamed_addr constant [52 x i8] c"Factorize did not complete successfully previously.\00", align 1
@.str.24 = private unnamed_addr constant [37 x i8] c"cuSolverDN::cusolverDnDpotrs failed.\00", align 1
@.str.25 = private unnamed_addr constant [18 x i8] c"Please report it.\00", align 1
@.str.26 = private unnamed_addr constant [43 x i8] c"cuSolverDN::cusolverDnDpotrs fatal error. \00", align 1

; Function Attrs: mustprogress nounwind uwtable
define linkonce_odr hidden noundef ptr @_ZN5ceres8internal10CudaBufferIiE4dataEv(ptr noundef nonnull align 8 dereferenceable(24) %0) #1 comdat align 2 {
  %2 = alloca ptr, align 8
  store ptr %0, ptr %2, align 8
  %3 = load ptr, ptr %2, align 8
  %4 = getelementptr inbounds %"class.ceres::internal::CudaBuffer.196", ptr %3, i32 0, i32 0
  %5 = load ptr, ptr %4, align 8
  ret ptr %5
}

; Function Attrs: mustprogress nounwind uwtable
define linkonce_odr hidden noundef ptr @_ZN5ceres8internal10CudaBufferIdE4dataEv(ptr noundef nonnull align 8 dereferenceable(24) %0) #1 comdat align 2 {
  %2 = alloca ptr, align 8
  store ptr %0, ptr %2, align 8
  %3 = load ptr, ptr %2, align 8
  %4 = getelementptr inbounds %"class.ceres::internal::CudaBuffer", ptr %3, i32 0, i32 0
  %5 = load ptr, ptr %4, align 8
  ret ptr %5
}

; Function Attrs: mustprogress uwtable
define hidden noundef i32 @_ZN5ceres8internal17CUDADenseCholesky5SolveEPKdPdPNSt7__cxx1112basic_stringIcSt11char_traitsIcESaIcEEE(ptr noundef nonnull align 8 dereferenceable(128) %0, ptr noundef %1, ptr noundef %2, ptr noundef %3) unnamed_addr #2 align 2 personality ptr @__gxx_personality_v0 {
  %5 = alloca i32, align 4
  %6 = alloca ptr, align 8
  %7 = alloca ptr, align 8
  %8 = alloca ptr, align 8
  %9 = alloca ptr, align 8
  %10 = alloca i32, align 4
  %11 = alloca %"class.google::LogMessageFatal", align 8
  %12 = alloca ptr, align 8
  %13 = alloca i32, align 4
  store ptr %0, ptr %6, align 8
  store ptr %1, ptr %7, align 8
  store ptr %2, ptr %8, align 8
  store ptr %3, ptr %9, align 8
  %14 = load ptr, ptr %6, align 8
  %15 = getelementptr inbounds %"class.ceres::internal::CUDADenseCholesky", ptr %14, i32 0, i32 7
  %16 = load i32, ptr %15, align 8
  %17 = icmp ne i32 %16, 0
  br i1 %17, label %18, label %23

18:                                               ; preds = %4
  %19 = load ptr, ptr %9, align 8
  %20 = call noundef nonnull align 8 dereferenceable(32) ptr @_ZNSt7__cxx1112basic_stringIcSt11char_traitsIcESaIcEEaSEPKc(ptr noundef nonnull align 8 dereferenceable(32) %19, ptr noundef @.str.23)
  %21 = getelementptr inbounds %"class.ceres::internal::CUDADenseCholesky", ptr %14, i32 0, i32 7
  %22 = load i32, ptr %21, align 8
  store i32 %22, ptr %5, align 4
  br label %85

23:                                               ; preds = %4
  %24 = getelementptr inbounds %"class.ceres::internal::CUDADenseCholesky", ptr %14, i32 0, i32 4
  %25 = load ptr, ptr %7, align 8
  %26 = getelementptr inbounds %"class.ceres::internal::CUDADenseCholesky", ptr %14, i32 0, i32 2
  %27 = load i64, ptr %26, align 8
  call void @_ZN5ceres8internal10CudaBufferIdE11CopyFromCpuEPKdm(ptr noundef nonnull align 8 dereferenceable(24) %24, ptr noundef %25, i64 noundef %27)
  %28 = getelementptr inbounds %"class.ceres::internal::CUDADenseCholesky", ptr %14, i32 0, i32 1
  %29 = load ptr, ptr %28, align 8
  %30 = getelementptr inbounds %"class.ceres::internal::ContextImpl", ptr %29, i32 0, i32 2
  %31 = load ptr, ptr %30, align 8
  %32 = getelementptr inbounds %"class.ceres::internal::CUDADenseCholesky", ptr %14, i32 0, i32 2
  %33 = load i64, ptr %32, align 8
  %34 = trunc i64 %33 to i32
  %35 = getelementptr inbounds %"class.ceres::internal::CUDADenseCholesky", ptr %14, i32 0, i32 3
  %36 = call noundef ptr @_ZN5ceres8internal10CudaBufferIdE4dataEv(ptr noundef nonnull align 8 dereferenceable(24) %35)
  %37 = getelementptr inbounds %"class.ceres::internal::CUDADenseCholesky", ptr %14, i32 0, i32 2
  %38 = load i64, ptr %37, align 8
  %39 = trunc i64 %38 to i32
  %40 = getelementptr inbounds %"class.ceres::internal::CUDADenseCholesky", ptr %14, i32 0, i32 4
  %41 = call noundef ptr @_ZN5ceres8internal10CudaBufferIdE4dataEv(ptr noundef nonnull align 8 dereferenceable(24) %40)
  %42 = getelementptr inbounds %"class.ceres::internal::CUDADenseCholesky", ptr %14, i32 0, i32 2
  %43 = load i64, ptr %42, align 8
  %44 = trunc i64 %43 to i32
  %45 = getelementptr inbounds %"class.ceres::internal::CUDADenseCholesky", ptr %14, i32 0, i32 6
  %46 = call noundef ptr @_ZN5ceres8internal10CudaBufferIiE4dataEv(ptr noundef nonnull align 8 dereferenceable(24) %45)
  %47 = call i32 @cusolverDnDpotrs(ptr noundef %31, i32 noundef 0, i32 noundef %34, i32 noundef 1, ptr noundef %36, i32 noundef %39, ptr noundef %41, i32 noundef %44, ptr noundef %46)
  %48 = icmp ne i32 %47, 0
  br i1 %48, label %49, label %52

49:                                               ; preds = %23
  %50 = load ptr, ptr %9, align 8
  %51 = call noundef nonnull align 8 dereferenceable(32) ptr @_ZNSt7__cxx1112basic_stringIcSt11char_traitsIcESaIcEEaSEPKc(ptr noundef nonnull align 8 dereferenceable(32) %50, ptr noundef @.str.24)
  store i32 3, ptr %5, align 4
  br label %85

52:                                               ; preds = %23
  store i32 0, ptr %10, align 4
  %53 = getelementptr inbounds %"class.ceres::internal::CUDADenseCholesky", ptr %14, i32 0, i32 6
  call void @_ZNK5ceres8internal10CudaBufferIiE9CopyToCpuEPim(ptr noundef nonnull align 8 dereferenceable(24) %53, ptr noundef %10, i64 noundef 1)
  %54 = load i32, ptr %10, align 4
  %55 = icmp ne i32 %54, 0
  br i1 %55, label %56, label %78

56:                                               ; preds = %52
  call void @_ZN6google15LogMessageFatalC1EPKci(ptr noundef nonnull align 8 dereferenceable(96) %11, ptr noundef @.str, i32 noundef 433)
  %57 = invoke noundef nonnull align 8 dereferenceable(8) ptr @_ZN6google10LogMessage6streamEv(ptr noundef nonnull align 8 dereferenceable(96) %11)
          to label %58 unwind label %73

58:                                               ; preds = %56
  %59 = invoke noundef nonnull align 8 dereferenceable(8) ptr @_ZStlsISt11char_traitsIcEERSt13basic_ostreamIcT_ES5_PKc(ptr noundef nonnull align 8 dereferenceable(8) %57, ptr noundef @.str.6)
          to label %60 unwind label %73

60:                                               ; preds = %58
  %61 = invoke noundef nonnull align 8 dereferenceable(8) ptr @_ZStlsISt11char_traitsIcEERSt13basic_ostreamIcT_ES5_PKc(ptr noundef nonnull align 8 dereferenceable(8) %59, ptr noundef @.str.25)
          to label %62 unwind label %73

62:                                               ; preds = %60
  %63 = invoke noundef nonnull align 8 dereferenceable(8) ptr @_ZStlsISt11char_traitsIcEERSt13basic_ostreamIcT_ES5_PKc(ptr noundef nonnull align 8 dereferenceable(8) %61, ptr noundef @.str.26)
          to label %64 unwind label %73

64:                                               ; preds = %62
  %65 = invoke noundef nonnull align 8 dereferenceable(8) ptr @_ZStlsISt11char_traitsIcEERSt13basic_ostreamIcT_ES5_PKc(ptr noundef nonnull align 8 dereferenceable(8) %63, ptr noundef @.str.9)
          to label %66 unwind label %73

66:                                               ; preds = %64
  %67 = load i32, ptr %10, align 4
  %68 = sub nsw i32 0, %67
  %69 = invoke noundef nonnull align 8 dereferenceable(8) ptr @_ZNSolsEi(ptr noundef nonnull align 8 dereferenceable(8) %65, i32 noundef %68)
          to label %70 unwind label %73

70:                                               ; preds = %66
  %71 = invoke noundef nonnull align 8 dereferenceable(8) ptr @_ZStlsISt11char_traitsIcEERSt13basic_ostreamIcT_ES5_PKc(ptr noundef nonnull align 8 dereferenceable(8) %69, ptr noundef @.str.10)
          to label %72 unwind label %73

72:                                               ; preds = %70
  call void @_ZN6google15LogMessageFatalD1Ev(ptr noundef nonnull align 8 dereferenceable(96) %11) #18
  unreachable

73:                                               ; preds = %70, %66, %64, %62, %60, %58, %56
  %74 = landingpad { ptr, i32 }
          cleanup
  %75 = extractvalue { ptr, i32 } %74, 0
  store ptr %75, ptr %12, align 8
  %76 = extractvalue { ptr, i32 } %74, 1
  store i32 %76, ptr %13, align 4
  call void @_ZN6google15LogMessageFatalD1Ev(ptr noundef nonnull align 8 dereferenceable(96) %11) #18
  unreachable

77:                                               ; No predecessors!
  br label %87

78:                                               ; preds = %52
  %79 = getelementptr inbounds %"class.ceres::internal::CUDADenseCholesky", ptr %14, i32 0, i32 4
  %80 = load ptr, ptr %8, align 8
  %81 = getelementptr inbounds %"class.ceres::internal::CUDADenseCholesky", ptr %14, i32 0, i32 2
  %82 = load i64, ptr %81, align 8
  call void @_ZNK5ceres8internal10CudaBufferIdE9CopyToCpuEPdm(ptr noundef nonnull align 8 dereferenceable(24) %79, ptr noundef %80, i64 noundef %82)
  %83 = load ptr, ptr %9, align 8
  %84 = call noundef nonnull align 8 dereferenceable(32) ptr @_ZNSt7__cxx1112basic_stringIcSt11char_traitsIcESaIcEEaSEPKc(ptr noundef nonnull align 8 dereferenceable(32) %83, ptr noundef @.str.13)
  store i32 0, ptr %5, align 4
  br label %85

85:                                               ; preds = %78, %49, %18
  %86 = load i32, ptr %5, align 4
  ret i32 %86

87:                                               ; preds = %77
  %88 = load ptr, ptr %12, align 8
  %89 = load i32, ptr %13, align 4
  %90 = insertvalue { ptr, i32 } poison, ptr %88, 0
  %91 = insertvalue { ptr, i32 } %90, i32 %89, 1
  resume { ptr, i32 } %91
}