; Function Attrs: mustprogress uwtable
define hidden noundef i32 @_ZN5ceres8internal17CUDADenseCholesky5SolveEPKdPdPNSt7__cxx1112basic_stringIcSt11char_traitsIcESaIcEEE(ptr noundef nonnull align 8 dereferenceable(128) %0, ptr noundef %1, ptr noundef %2, ptr noundef %3) unnamed_addr #3 align 2 personality ptr @__gxx_personality_v0 {
  %5 = alloca i32, align 4
  %6 = alloca %"class.google::LogMessageFatal", align 8
  %7 = getelementptr inbounds i8, ptr %0, i64 120
  %8 = load i32, ptr %7, align 8
  %.not = icmp eq i32 %8, 0
  br i1 %.not, label %12, label %9

9:                                                ; preds = %4
  %10 = tail call noundef nonnull align 8 dereferenceable(32) ptr @_ZNSt7__cxx1112basic_stringIcSt11char_traitsIcESaIcEEaSEPKc(ptr noundef nonnull align 8 dereferenceable(32) %3, ptr noundef nonnull @.str.23)
  %11 = load i32, ptr %7, align 8
  br label %54

12:                                               ; preds = %4
  %13 = getelementptr inbounds i8, ptr %0, i64 48
  %14 = getelementptr inbounds i8, ptr %0, i64 16
  %15 = load i64, ptr %14, align 8
  tail call void @_ZN5ceres8internal10CudaBufferIdE11CopyFromCpuEPKdm(ptr noundef nonnull align 8 dereferenceable(24) %13, ptr noundef %1, i64 noundef %15)
  %16 = getelementptr inbounds i8, ptr %0, i64 8
  %17 = load ptr, ptr %16, align 8
  %18 = getelementptr inbounds i8, ptr %17, i64 248
  %19 = load ptr, ptr %18, align 8
  %20 = load i64, ptr %14, align 8
  %21 = trunc i64 %20 to i32
  %22 = getelementptr inbounds i8, ptr %0, i64 24
  %23 = load ptr, ptr %22, align 8
  %24 = load ptr, ptr %13, align 8
  %25 = getelementptr inbounds i8, ptr %0, i64 96
  %26 = load ptr, ptr %25, align 8
  %27 = tail call i32 @cusolverDnDpotrs(ptr noundef %19, i32 noundef 0, i32 noundef %21, i32 noundef 1, ptr noundef %23, i32 noundef %21, ptr noundef %24, i32 noundef %21, ptr noundef %26)
  %.not6 = icmp eq i32 %27, 0
  br i1 %.not6, label %30, label %28

28:                                               ; preds = %12
  %29 = tail call noundef nonnull align 8 dereferenceable(32) ptr @_ZNSt7__cxx1112basic_stringIcSt11char_traitsIcESaIcEEaSEPKc(ptr noundef nonnull align 8 dereferenceable(32) %3, ptr noundef nonnull @.str.24)
  br label %54

30:                                               ; preds = %12
  store i32 0, ptr %5, align 4
  call void @_ZNK5ceres8internal10CudaBufferIiE9CopyToCpuEPim(ptr noundef nonnull align 8 dereferenceable(24) %25, ptr noundef nonnull %5, i64 noundef 1)
  %31 = load i32, ptr %5, align 4
  %.not7 = icmp eq i32 %31, 0
  br i1 %.not7, label %51, label %32

32:                                               ; preds = %30
  call void @_ZN6google15LogMessageFatalC1EPKci(ptr noundef nonnull align 8 dereferenceable(96) %6, ptr noundef nonnull @.str, i32 noundef 433)
  %33 = invoke noundef nonnull align 8 dereferenceable(8) ptr @_ZN6google10LogMessage6streamEv(ptr noundef nonnull align 8 dereferenceable(96) %6)
          to label %34 unwind label %49

34:                                               ; preds = %32
  %35 = invoke noundef nonnull align 8 dereferenceable(8) ptr @_ZStlsISt11char_traitsIcEERSt13basic_ostreamIcT_ES5_PKc(ptr noundef nonnull align 8 dereferenceable(8) %33, ptr noundef nonnull @.str.6)
          to label %36 unwind label %49

36:                                               ; preds = %34
  %37 = invoke noundef nonnull align 8 dereferenceable(8) ptr @_ZStlsISt11char_traitsIcEERSt13basic_ostreamIcT_ES5_PKc(ptr noundef nonnull align 8 dereferenceable(8) %35, ptr noundef nonnull @.str.25)
          to label %38 unwind label %49

38:                                               ; preds = %36
  %39 = invoke noundef nonnull align 8 dereferenceable(8) ptr @_ZStlsISt11char_traitsIcEERSt13basic_ostreamIcT_ES5_PKc(ptr noundef nonnull align 8 dereferenceable(8) %37, ptr noundef nonnull @.str.26)
          to label %40 unwind label %49

40:                                               ; preds = %38
  %41 = invoke noundef nonnull align 8 dereferenceable(8) ptr @_ZStlsISt11char_traitsIcEERSt13basic_ostreamIcT_ES5_PKc(ptr noundef nonnull align 8 dereferenceable(8) %39, ptr noundef nonnull @.str.9)
          to label %42 unwind label %49

42:                                               ; preds = %40
  %43 = load i32, ptr %5, align 4
  %44 = sub nsw i32 0, %43
  %45 = invoke noundef nonnull align 8 dereferenceable(8) ptr @_ZNSolsEi(ptr noundef nonnull align 8 dereferenceable(8) %41, i32 noundef %44)
          to label %46 unwind label %49

46:                                               ; preds = %42
  %47 = invoke noundef nonnull align 8 dereferenceable(8) ptr @_ZStlsISt11char_traitsIcEERSt13basic_ostreamIcT_ES5_PKc(ptr noundef nonnull align 8 dereferenceable(8) %45, ptr noundef nonnull @.str.10)
          to label %48 unwind label %49

48:                                               ; preds = %46
  call void @_ZN6google15LogMessageFatalD1Ev(ptr noundef nonnull align 8 dereferenceable(96) %6) #23
  unreachable

49:                                               ; preds = %46, %42, %40, %38, %36, %34, %32
  %50 = landingpad { ptr, i32 }
          cleanup
  call void @_ZN6google15LogMessageFatalD1Ev(ptr noundef nonnull align 8 dereferenceable(96) %6) #23
  unreachable

51:                                               ; preds = %30
  %52 = load i64, ptr %14, align 8
  call void @_ZNK5ceres8internal10CudaBufferIdE9CopyToCpuEPdm(ptr noundef nonnull align 8 dereferenceable(24) %13, ptr noundef %2, i64 noundef %52)
  %53 = call noundef nonnull align 8 dereferenceable(32) ptr @_ZNSt7__cxx1112basic_stringIcSt11char_traitsIcESaIcEEaSEPKc(ptr noundef nonnull align 8 dereferenceable(32) %3, ptr noundef nonnull @.str.13)
  br label %54

54:                                               ; preds = %51, %28, %9
  %.0 = phi i32 [ %11, %9 ], [ 3, %28 ], [ 0, %51 ]
  ret i32 %.0
}